target datalayout = "e-m:e-p270:32:32-p271:32:32-p272:64:64-i64:64-i128:128-f80:128-n8:16:32:64-S128"
target triple = "x86_64-pc-linux-gnu"

%class.MonitorList = type { ptr, i64, i64 }
%class.LogTagSet = type { ptr, i64, [5 x i32], [4 x i8], %class.LogOutputList, %class.LogDecorators, ptr }
%class.LogOutputList = type <{ [6 x ptr], i32, [4 x i8] }>
%class.LogDecorators = type { i32 }
%"struct.Atomic::LoadImpl.41" = type { i8 }
%"struct.Atomic::PlatformLoad.16" = type { i8 }

@_ZN18ObjectSynchronizer29_last_async_deflation_time_nsE = hidden global i64 0, align 8
@_ZN18ObjectSynchronizer12_in_use_listE = hidden global %class.MonitorList zeroinitializer, align 8
@_ZN18ObjectSynchronizer29_is_async_deflation_requestedE = hidden global i8 0, align 1
@_ZL20_in_use_list_ceiling = internal global i64 0, align 8
@.str.12 = private unnamed_addr constant [41 x i8] c"Async deflation needed: explicit request\00", align 1
@AsyncDeflationInterval = external global i64, align 8
@.str.13 = private unnamed_addr constant [62 x i8] c"Async deflation needed: monitors used are above the threshold\00", align 1
@GuaranteedAsyncDeflationInterval = external global i64, align 8
@.str.14 = private unnamed_addr constant [104 x i8] c"Async deflation needed: guaranteed interval (%ld ms) is greater than time since last deflation (%ld ms)\00", align 1
@_ZL27_no_progress_skip_increment = internal global i8 0, align 1
@_ZL16_no_progress_cnt = internal global i64 0, align 8
@_ZN16LogTagSetMappingILN6LogTag4typeE90ELS1_0ELS1_0ELS1_0ELS1_0ELS1_0EE7_tagsetE = linkonce_odr hidden global %class.LogTagSet zeroinitializer, comdat, align 8
@MonitorUsedDeflationThreshold = external global i32, align 4
@NoAsyncDeflationProgressMax = external global i64, align 8
@.str.73 = private unnamed_addr constant [82 x i8] c"Too many deflations without progress; bumping in_use_list_ceiling from %lu to %lu\00", align 1
@.str.74 = private unnamed_addr constant [64 x i8] c"monitors_used=%lu, ceiling=%lu, monitor_usage=%lu, threshold=%d\00", align 1

; Function Attrs: mustprogress nounwind uwtable
define linkonce_odr hidden noundef i64 @_ZNK6Atomic12PlatformLoadILm8EEclImEET_PVKS3_(ptr noundef nonnull align 1 dereferenceable(1) %0, ptr noundef %1) #1 comdat align 2 {
  %3 = alloca ptr, align 8
  %4 = alloca ptr, align 8
  store ptr %0, ptr %3, align 8
  store ptr %1, ptr %4, align 8
  %5 = load ptr, ptr %4, align 8
  %6 = load volatile i64, ptr %5, align 8
  ret i64 %6
}

; Function Attrs: mustprogress nounwind uwtable
define linkonce_odr hidden noundef i64 @_ZNK6Atomic8LoadImplImNS_12PlatformLoadILm8EEEvEclEPVKm(ptr noundef nonnull align 1 dereferenceable(1) %0, ptr noundef %1) #1 comdat align 2 {
  %3 = alloca ptr, align 8
  %4 = alloca ptr, align 8
  %5 = alloca %"struct.Atomic::PlatformLoad.16", align 1
  store ptr %0, ptr %3, align 8
  store ptr %1, ptr %4, align 8
  %6 = load ptr, ptr %4, align 8
  %7 = call noundef i64 @_ZNK6Atomic12PlatformLoadILm8EEclImEET_PVKS3_(ptr noundef nonnull align 1 dereferenceable(1) %5, ptr noundef %6)
  ret i64 %7
}

; Function Attrs: mustprogress nounwind uwtable
define linkonce_odr hidden noundef i64 @_ZN6Atomic4loadImEET_PVKS1_(ptr noundef %0) #1 comdat align 2 {
  %2 = alloca ptr, align 8
  %3 = alloca %"struct.Atomic::LoadImpl.41", align 1
  store ptr %0, ptr %2, align 8
  %4 = load ptr, ptr %2, align 8
  %5 = call noundef i64 @_ZNK6Atomic8LoadImplImNS_12PlatformLoadILm8EEEvEclEPVKm(ptr noundef nonnull align 1 dereferenceable(1) %3, ptr noundef %4)
  ret i64 %5
}

; Function Attrs: mustprogress nounwind uwtable
define linkonce_odr hidden noundef zeroext i1 @_ZNK13LogOutputList8is_levelEN8LogLevel4typeE(ptr noundef nonnull align 8 dereferenceable(52) %0, i32 noundef %1) #1 comdat align 2 {
  %3 = alloca ptr, align 8
  %4 = alloca i32, align 4
  store ptr %0, ptr %3, align 8
  store i32 %1, ptr %4, align 4
  %5 = load ptr, ptr %3, align 8
  %6 = getelementptr inbounds %class.LogOutputList, ptr %5, i32 0, i32 0
  %7 = load i32, ptr %4, align 4
  %8 = zext i32 %7 to i64
  %9 = getelementptr inbounds [6 x ptr], ptr %6, i64 0, i64 %8
  %10 = load volatile ptr, ptr %9, align 8
  %11 = icmp ne ptr %10, null
  ret i1 %11
}

; Function Attrs: mustprogress nounwind uwtable
define hidden void @_ZN18ObjectSynchronizer23set_in_use_list_ceilingEm(i64 noundef %0) #1 align 2 {
  %2 = alloca i64, align 8
  store i64 %0, ptr %2, align 8
  %3 = load i64, ptr %2, align 8
  store i64 %3, ptr @_ZL20_in_use_list_ceiling, align 8
  ret void
}

; Function Attrs: mustprogress nounwind uwtable
define hidden noundef i64 @_ZNK11MonitorList5countEv(ptr noundef nonnull align 8 dereferenceable(24) %0) #1 align 2 {
  %2 = alloca ptr, align 8
  store ptr %0, ptr %2, align 8
  %3 = load ptr, ptr %2, align 8
  %4 = getelementptr inbounds %class.MonitorList, ptr %3, i32 0, i32 1
  %5 = call noundef i64 @_ZN6Atomic4loadImEET_PVKS1_(ptr noundef %4)
  ret i64 %5
}

; Function Attrs: mustprogress nounwind uwtable
define hidden noundef i64 @_ZNK11MonitorList3maxEv(ptr noundef nonnull align 8 dereferenceable(24) %0) #1 align 2 {
  %2 = alloca ptr, align 8
  store ptr %0, ptr %2, align 8
  %3 = load ptr, ptr %2, align 8
  %4 = getelementptr inbounds %class.MonitorList, ptr %3, i32 0, i32 2
  %5 = call noundef i64 @_ZN6Atomic4loadImEET_PVKS1_(ptr noundef %4)
  ret i64 %5
}

; Function Attrs: mustprogress nounwind uwtable
define hidden noundef i64 @_ZN18ObjectSynchronizer19in_use_list_ceilingEv() #1 align 2 {
  %1 = load i64, ptr @_ZL20_in_use_list_ceiling, align 8
  ret i64 %1
}

; Function Attrs: mustprogress nounwind uwtable
define linkonce_odr hidden noundef i64 @_ZN18ObjectSynchronizer28last_async_deflation_time_nsEv() #1 comdat align 2 {
  %1 = load i64, ptr @_ZN18ObjectSynchronizer29_last_async_deflation_time_nsE, align 8
  ret i64 %1
}

; Function Attrs: mustprogress nounwind uwtable
define linkonce_odr hidden noundef zeroext i1 @_ZNK9LogTagSet8is_levelEN8LogLevel4typeE(ptr noundef nonnull align 8 dereferenceable(112) %0, i32 noundef %1) #1 comdat align 2 {
  %3 = alloca ptr, align 8
  %4 = alloca i32, align 4
  store ptr %0, ptr %3, align 8
  store i32 %1, ptr %4, align 4
  %5 = load ptr, ptr %3, align 8
  %6 = getelementptr inbounds %class.LogTagSet, ptr %5, i32 0, i32 4
  %7 = load i32, ptr %4, align 4
  %8 = call noundef zeroext i1 @_ZNK13LogOutputList8is_levelEN8LogLevel4typeE(ptr noundef nonnull align 8 dereferenceable(52) %6, i32 noundef %7)
  ret i1 %8
}

; Function Attrs: mustprogress nounwind uwtable
define linkonce_odr hidden noundef nonnull align 8 dereferenceable(112) ptr @_ZN16LogTagSetMappingILN6LogTag4typeE90ELS1_0ELS1_0ELS1_0ELS1_0ELS1_0EE6tagsetEv() #1 comdat align 2 {
  ret ptr @_ZN16LogTagSetMappingILN6LogTag4typeE90ELS1_0ELS1_0ELS1_0ELS1_0ELS1_0EE7_tagsetE
}

; Function Attrs: mustprogress nounwind uwtable
define internal noundef zeroext i1 @_ZL29monitors_used_above_thresholdP11MonitorList(ptr noundef %0) #1 {
  %2 = alloca i1, align 1
  %3 = alloca ptr, align 8
  %4 = alloca i64, align 8
  %5 = alloca i64, align 8
  %6 = alloca i64, align 8
  %7 = alloca double, align 8
  %8 = alloca i64, align 8
  %9 = alloca i64, align 8
  store ptr %0, ptr %3, align 8
  %10 = load i32, ptr @MonitorUsedDeflationThreshold, align 4
  %11 = icmp eq i32 %10, 0
  br i1 %11, label %12, label %13

12:                                               ; preds = %1
  store i1 false, ptr %2, align 1
  br label %76

13:                                               ; preds = %1
  %14 = call noundef i64 @_ZN18ObjectSynchronizer19in_use_list_ceilingEv()
  store i64 %14, ptr %4, align 8
  %15 = load i64, ptr %4, align 8
  store i64 %15, ptr %5, align 8
  %16 = load i64, ptr %4, align 8
  %17 = load ptr, ptr %3, align 8
  %18 = call noundef i64 @_ZNK11MonitorList3maxEv(ptr noundef nonnull align 8 dereferenceable(24) %17)
  %19 = icmp ult i64 %16, %18
  br i1 %19, label %20, label %23

20:                                               ; preds = %13
  %21 = load ptr, ptr %3, align 8
  %22 = call noundef i64 @_ZNK11MonitorList3maxEv(ptr noundef nonnull align 8 dereferenceable(24) %21)
  store i64 %22, ptr %4, align 8
  br label %23

23:                                               ; preds = %20, %13
  %24 = load ptr, ptr %3, align 8
  %25 = call noundef i64 @_ZNK11MonitorList5countEv(ptr noundef nonnull align 8 dereferenceable(24) %24)
  store i64 %25, ptr %6, align 8
  %26 = load i64, ptr %6, align 8
  %27 = icmp eq i64 %26, 0
  br i1 %27, label %28, label %29

28:                                               ; preds = %23
  store i1 false, ptr %2, align 1
  br label %76

29:                                               ; preds = %23
  %30 = load i64, ptr @NoAsyncDeflationProgressMax, align 8
  %31 = icmp ne i64 %30, 0
  br i1 %31, label %32, label %57

32:                                               ; preds = %29
  %33 = load i64, ptr @_ZL16_no_progress_cnt, align 8
  %34 = load i64, ptr @NoAsyncDeflationProgressMax, align 8
  %35 = icmp uge i64 %33, %34
  br i1 %35, label %36, label %57

36:                                               ; preds = %32
  %37 = load i32, ptr @MonitorUsedDeflationThreshold, align 4
  %38 = sitofp i32 %37 to double
  %39 = fsub double 1.000000e+02, %38
  %40 = fdiv double %39, 1.000000e+02
  store double %40, ptr %7, align 8
  %41 = load i64, ptr %4, align 8
  %42 = load i64, ptr %4, align 8
  %43 = uitofp i64 %42 to double
  %44 = load double, ptr %7, align 8
  %45 = fmul double %43, %44
  %46 = fptoui double %45 to i64
  %47 = add i64 %41, %46
  %48 = add i64 %47, 1
  store i64 %48, ptr %8, align 8
  %49 = load i64, ptr %8, align 8
  call void @_ZN18ObjectSynchronizer23set_in_use_list_ceilingEm(i64 noundef %49)
  %50 = call noundef zeroext i1 @_ZN7LogImplILN6LogTag4typeE90ELS1_0ELS1_0ELS1_0ELS1_0ELS1_0EE8is_levelEN8LogLevel4typeE(i32 noundef 3)
  br i1 %50, label %52, label %51

51:                                               ; preds = %36
  br label %55

52:                                               ; preds = %36
  %53 = load i64, ptr %5, align 8
  %54 = load i64, ptr %8, align 8
  call void (ptr, ...) @_ZN7LogImplILN6LogTag4typeE90ELS1_0ELS1_0ELS1_0ELS1_0ELS1_0EE5writeILN8LogLevel4typeE3EEEvPKcz(ptr noundef @.str.73, i64 noundef %53, i64 noundef %54)
  br label %55

55:                                               ; preds = %52, %51
  store i64 0, ptr @_ZL16_no_progress_cnt, align 8
  %56 = load i64, ptr %8, align 8
  store i64 %56, ptr %4, align 8
  br label %57

57:                                               ; preds = %55, %32, %29
  %58 = load i64, ptr %6, align 8
  %59 = mul i64 %58, 100
  %60 = load i64, ptr %4, align 8
  %61 = udiv i64 %59, %60
  store i64 %61, ptr %9, align 8
  %62 = load i64, ptr %9, align 8
  %63 = trunc i64 %62 to i32
  %64 = load i32, ptr @MonitorUsedDeflationThreshold, align 4
  %65 = icmp sgt i32 %63, %64
  br i1 %65, label %66, label %75

66:                                               ; preds = %57
  %67 = call noundef zeroext i1 @_ZN7LogImplILN6LogTag4typeE90ELS1_0ELS1_0ELS1_0ELS1_0ELS1_0EE8is_levelEN8LogLevel4typeE(i32 noundef 3)
  br i1 %67, label %69, label %68

68:                                               ; preds = %66
  br label %74

69:                                               ; preds = %66
  %70 = load i64, ptr %6, align 8
  %71 = load i64, ptr %4, align 8
  %72 = load i64, ptr %9, align 8
  %73 = load i32, ptr @MonitorUsedDeflationThreshold, align 4
  call void (ptr, ...) @_ZN7LogImplILN6LogTag4typeE90ELS1_0ELS1_0ELS1_0ELS1_0ELS1_0EE5writeILN8LogLevel4typeE3EEEvPKcz(ptr noundef @.str.74, i64 noundef %70, i64 noundef %71, i64 noundef %72, i32 noundef %73)
  br label %74

74:                                               ; preds = %69, %68
  store i1 true, ptr %2, align 1
  br label %76

75:                                               ; preds = %57
  store i1 false, ptr %2, align 1
  br label %76

76:                                               ; preds = %75, %74, %28, %12
  %77 = load i1, ptr %2, align 1
  ret i1 %77
}

; Function Attrs: mustprogress nounwind uwtable
define hidden noundef i64 @_ZN18ObjectSynchronizer34time_since_last_async_deflation_msEv() #1 align 2 {
  %1 = call noundef i64 @_ZN2os13javaTimeNanosEv()
  %2 = call noundef i64 @_ZN18ObjectSynchronizer28last_async_deflation_time_nsEv()
  %3 = sub nsw i64 %1, %2
  %4 = sdiv i64 %3, 1000000
  ret i64 %4
}

; Function Attrs: mustprogress nounwind uwtable
define linkonce_odr hidden noundef zeroext i1 @_ZN7LogImplILN6LogTag4typeE90ELS1_0ELS1_0ELS1_0ELS1_0ELS1_0EE8is_levelEN8LogLevel4typeE(i32 noundef %0) #1 comdat align 2 {
  %2 = alloca i32, align 4
  store i32 %0, ptr %2, align 4
  %3 = call noundef nonnull align 8 dereferenceable(112) ptr @_ZN16LogTagSetMappingILN6LogTag4typeE90ELS1_0ELS1_0ELS1_0ELS1_0ELS1_0EE6tagsetEv()
  %4 = load i32, ptr %2, align 4
  %5 = call noundef zeroext i1 @_ZNK9LogTagSet8is_levelEN8LogLevel4typeE(ptr noundef nonnull align 8 dereferenceable(112) %3, i32 noundef %4)
  ret i1 %5
}

; Function Attrs: mustprogress nounwind uwtable
define linkonce_odr hidden noundef zeroext i1 @_ZN18ObjectSynchronizer28is_async_deflation_requestedEv() #1 comdat align 2 {
  %1 = load volatile i8, ptr @_ZN18ObjectSynchronizer29_is_async_deflation_requestedE, align 1
  %2 = trunc i8 %1 to i1
  ret i1 %2
}

; Function Attrs: mustprogress nounwind uwtable
define hidden noundef zeroext i1 @_ZN18ObjectSynchronizer25is_async_deflation_neededEv() #1 align 2 {
  %1 = alloca i1, align 1
  %2 = alloca i64, align 8
  %3 = call noundef zeroext i1 @_ZN18ObjectSynchronizer28is_async_deflation_requestedEv()
  br i1 %3, label %4, label %9

4:                                                ; preds = %0
  %5 = call noundef zeroext i1 @_ZN7LogImplILN6LogTag4typeE90ELS1_0ELS1_0ELS1_0ELS1_0ELS1_0EE8is_levelEN8LogLevel4typeE(i32 noundef 3)
  br i1 %5, label %7, label %6

6:                                                ; preds = %4
  br label %8

7:                                                ; preds = %4
  call void (ptr, ...) @_ZN7LogImplILN6LogTag4typeE90ELS1_0ELS1_0ELS1_0ELS1_0ELS1_0EE5writeILN8LogLevel4typeE3EEEvPKcz(ptr noundef @.str.12)
  br label %8

8:                                                ; preds = %7, %6
  store i1 true, ptr %1, align 1
  br label %39

9:                                                ; preds = %0
  %10 = call noundef i64 @_ZN18ObjectSynchronizer34time_since_last_async_deflation_msEv()
  store i64 %10, ptr %2, align 8
  %11 = load i64, ptr @AsyncDeflationInterval, align 8
  %12 = icmp sgt i64 %11, 0
  br i1 %12, label %13, label %24

13:                                               ; preds = %9
  %14 = load i64, ptr %2, align 8
  %15 = load i64, ptr @AsyncDeflationInterval, align 8
  %16 = icmp sgt i64 %14, %15
  br i1 %16, label %17, label %24

17:                                               ; preds = %13
  %18 = call noundef zeroext i1 @_ZL29monitors_used_above_thresholdP11MonitorList(ptr noundef @_ZN18ObjectSynchronizer12_in_use_listE)
  br i1 %18, label %19, label %24

19:                                               ; preds = %17
  %20 = call noundef zeroext i1 @_ZN7LogImplILN6LogTag4typeE90ELS1_0ELS1_0ELS1_0ELS1_0ELS1_0EE8is_levelEN8LogLevel4typeE(i32 noundef 3)
  br i1 %20, label %22, label %21

21:                                               ; preds = %19
  br label %23

22:                                               ; preds = %19
  call void (ptr, ...) @_ZN7LogImplILN6LogTag4typeE90ELS1_0ELS1_0ELS1_0ELS1_0ELS1_0EE5writeILN8LogLevel4typeE3EEEvPKcz(ptr noundef @.str.13)
  br label %23

23:                                               ; preds = %22, %21
  store i1 true, ptr %1, align 1
  br label %39

24:                                               ; preds = %17, %13, %9
  %25 = load i64, ptr @GuaranteedAsyncDeflationInterval, align 8
  %26 = icmp sgt i64 %25, 0
  br i1 %26, label %27, label %38

27:                                               ; preds = %24
  %28 = load i64, ptr %2, align 8
  %29 = load i64, ptr @GuaranteedAsyncDeflationInterval, align 8
  %30 = icmp sgt i64 %28, %29
  br i1 %30, label %31, label %38

31:                                               ; preds = %27
  %32 = call noundef zeroext i1 @_ZN7LogImplILN6LogTag4typeE90ELS1_0ELS1_0ELS1_0ELS1_0ELS1_0EE8is_levelEN8LogLevel4typeE(i32 noundef 3)
  br i1 %32, label %34, label %33

33:                                               ; preds = %31
  br label %37

34:                                               ; preds = %31
  %35 = load i64, ptr @GuaranteedAsyncDeflationInterval, align 8
  %36 = load i64, ptr %2, align 8
  call void (ptr, ...) @_ZN7LogImplILN6LogTag4typeE90ELS1_0ELS1_0ELS1_0ELS1_0ELS1_0EE5writeILN8LogLevel4typeE3EEEvPKcz(ptr noundef @.str.14, i64 noundef %35, i64 noundef %36)
  br label %37

37:                                               ; preds = %34, %33
  store i8 1, ptr @_ZL27_no_progress_skip_increment, align 1
  store i1 true, ptr %1, align 1
  br label %39

38:                                               ; preds = %27, %24
  store i1 false, ptr %1, align 1
  br label %39

39:                                               ; preds = %38, %37, %23, %8
  %40 = load i1, ptr %1, align 1
  ret i1 %40
}