; Function Attrs: mustprogress nounwind uwtable
define hidden noundef zeroext i1 @_ZN18ObjectSynchronizer25is_async_deflation_neededEv() local_unnamed_addr #0 align 2 {
  %1 = load volatile i8, ptr @_ZN18ObjectSynchronizer29_is_async_deflation_requestedE, align 1
  %2 = trunc i8 %1 to i1
  br i1 %2, label %3, label %6

3:                                                ; preds = %0
  %4 = load volatile ptr, ptr getelementptr inbounds (i8, ptr @_ZN16LogTagSetMappingILN6LogTag4typeE90ELS1_0ELS1_0ELS1_0ELS1_0ELS1_0EE7_tagsetE, i64 64), align 8
  %.not9 = icmp eq ptr %4, null
  br i1 %.not9, label %61, label %5

5:                                                ; preds = %3
  tail call void (ptr, ...) @_ZN7LogImplILN6LogTag4typeE90ELS1_0ELS1_0ELS1_0ELS1_0ELS1_0EE5writeILN8LogLevel4typeE3EEEvPKcz(ptr noundef nonnull @.str.12)
  br label %61

6:                                                ; preds = %0
  %7 = tail call noundef i64 @_ZN2os13javaTimeNanosEv() #18
  %8 = load i64, ptr @_ZN18ObjectSynchronizer29_last_async_deflation_time_nsE, align 8
  %9 = sub nsw i64 %7, %8
  %10 = sdiv i64 %9, 1000000
  %11 = load i64, ptr @AsyncDeflationInterval, align 8
  %12 = icmp sgt i64 %11, 0
  %13 = icmp sgt i64 %10, %11
  %or.cond = and i1 %12, %13
  br i1 %or.cond, label %14, label %_ZL29monitors_used_above_thresholdP11MonitorList.exit.thread

14:                                               ; preds = %6
  %15 = load i32, ptr @MonitorUsedDeflationThreshold, align 4
  %16 = icmp eq i32 %15, 0
  br i1 %16, label %_ZL29monitors_used_above_thresholdP11MonitorList.exit.thread, label %17

17:                                               ; preds = %14
  %18 = load i64, ptr @_ZL20_in_use_list_ceiling, align 8
  %19 = load volatile i64, ptr getelementptr inbounds (i8, ptr @_ZN18ObjectSynchronizer12_in_use_listE, i64 16), align 8
  %20 = icmp ult i64 %18, %19
  br i1 %20, label %21, label %23

21:                                               ; preds = %17
  %22 = load volatile i64, ptr getelementptr inbounds (i8, ptr @_ZN18ObjectSynchronizer12_in_use_listE, i64 16), align 8
  br label %23

23:                                               ; preds = %21, %17
  %.019.i = phi i64 [ %22, %21 ], [ %18, %17 ]
  %24 = load volatile i64, ptr getelementptr inbounds (i8, ptr @_ZN18ObjectSynchronizer12_in_use_listE, i64 8), align 8
  %25 = icmp eq i64 %24, 0
  br i1 %25, label %_ZL29monitors_used_above_thresholdP11MonitorList.exit.thread, label %26

26:                                               ; preds = %23
  %27 = load i64, ptr @NoAsyncDeflationProgressMax, align 8
  %28 = load i64, ptr @_ZL16_no_progress_cnt, align 8
  %29 = freeze i64 %28
  %30 = add i64 %27, -1
  %or.cond.not.i = icmp ult i64 %30, %29
  br i1 %or.cond.not.i, label %31, label %43

31:                                               ; preds = %26
  %32 = sitofp i32 %15 to double
  %33 = fsub double 1.000000e+02, %32
  %34 = fdiv double %33, 1.000000e+02
  %35 = uitofp i64 %.019.i to double
  %36 = fmul double %34, %35
  %37 = fptoui double %36 to i64
  %38 = add i64 %.019.i, 1
  %39 = add i64 %38, %37
  store i64 %39, ptr @_ZL20_in_use_list_ceiling, align 8
  %40 = load volatile ptr, ptr getelementptr inbounds (i8, ptr @_ZN16LogTagSetMappingILN6LogTag4typeE90ELS1_0ELS1_0ELS1_0ELS1_0ELS1_0EE7_tagsetE, i64 64), align 8
  %.not.i = icmp eq ptr %40, null
  br i1 %.not.i, label %42, label %41

41:                                               ; preds = %31
  tail call void (ptr, ...) @_ZN7LogImplILN6LogTag4typeE90ELS1_0ELS1_0ELS1_0ELS1_0ELS1_0EE5writeILN8LogLevel4typeE3EEEvPKcz(ptr noundef nonnull @.str.73, i64 noundef %18, i64 noundef %39)
  %.pre.pre.i = load i32, ptr @MonitorUsedDeflationThreshold, align 4
  br label %42

42:                                               ; preds = %41, %31
  %.pre.i = phi i32 [ %15, %31 ], [ %.pre.pre.i, %41 ]
  store i64 0, ptr @_ZL16_no_progress_cnt, align 8
  br label %43

43:                                               ; preds = %42, %26
  %44 = phi i32 [ %.pre.i, %42 ], [ %15, %26 ]
  %.1.i = phi i64 [ %39, %42 ], [ %.019.i, %26 ]
  %45 = mul i64 %24, 100
  %46 = udiv i64 %45, %.1.i
  %47 = trunc i64 %46 to i32
  %48 = icmp slt i32 %44, %47
  br i1 %48, label %49, label %_ZL29monitors_used_above_thresholdP11MonitorList.exit.thread

49:                                               ; preds = %43
  %50 = load volatile ptr, ptr getelementptr inbounds (i8, ptr @_ZN16LogTagSetMappingILN6LogTag4typeE90ELS1_0ELS1_0ELS1_0ELS1_0ELS1_0EE7_tagsetE, i64 64), align 8
  %.not1.i = icmp eq ptr %50, null
  br i1 %.not1.i, label %_ZL29monitors_used_above_thresholdP11MonitorList.exit, label %51

51:                                               ; preds = %49
  tail call void (ptr, ...) @_ZN7LogImplILN6LogTag4typeE90ELS1_0ELS1_0ELS1_0ELS1_0ELS1_0EE5writeILN8LogLevel4typeE3EEEvPKcz(ptr noundef nonnull @.str.74, i64 noundef %24, i64 noundef %.1.i, i64 noundef %46, i32 noundef %44)
  br label %_ZL29monitors_used_above_thresholdP11MonitorList.exit

_ZL29monitors_used_above_thresholdP11MonitorList.exit: ; preds = %51, %49
  %52 = load volatile ptr, ptr getelementptr inbounds (i8, ptr @_ZN16LogTagSetMappingILN6LogTag4typeE90ELS1_0ELS1_0ELS1_0ELS1_0ELS1_0EE7_tagsetE, i64 64), align 8
  %.not = icmp eq ptr %52, null
  br i1 %.not, label %61, label %53

53:                                               ; preds = %_ZL29monitors_used_above_thresholdP11MonitorList.exit
  tail call void (ptr, ...) @_ZN7LogImplILN6LogTag4typeE90ELS1_0ELS1_0ELS1_0ELS1_0ELS1_0EE5writeILN8LogLevel4typeE3EEEvPKcz(ptr noundef nonnull @.str.13)
  br label %61

_ZL29monitors_used_above_thresholdP11MonitorList.exit.thread: ; preds = %43, %23, %14, %6
  %54 = load i64, ptr @GuaranteedAsyncDeflationInterval, align 8
  %55 = icmp sgt i64 %54, 0
  %56 = icmp sgt i64 %10, %54
  %or.cond6 = and i1 %55, %56
  br i1 %or.cond6, label %57, label %61

57:                                               ; preds = %_ZL29monitors_used_above_thresholdP11MonitorList.exit.thread
  %58 = load volatile ptr, ptr getelementptr inbounds (i8, ptr @_ZN16LogTagSetMappingILN6LogTag4typeE90ELS1_0ELS1_0ELS1_0ELS1_0ELS1_0EE7_tagsetE, i64 64), align 8
  %.not8 = icmp eq ptr %58, null
  br i1 %.not8, label %60, label %59

59:                                               ; preds = %57
  tail call void (ptr, ...) @_ZN7LogImplILN6LogTag4typeE90ELS1_0ELS1_0ELS1_0ELS1_0ELS1_0EE5writeILN8LogLevel4typeE3EEEvPKcz(ptr noundef nonnull @.str.14, i64 noundef %54, i64 noundef %10)
  br label %60

60:                                               ; preds = %57, %59
  store i1 true, ptr @_ZL27_no_progress_skip_increment, align 1
  br label %61

61:                                               ; preds = %_ZL29monitors_used_above_thresholdP11MonitorList.exit.thread, %53, %_ZL29monitors_used_above_thresholdP11MonitorList.exit, %5, %3, %60
  %.0 = phi i1 [ true, %60 ], [ true, %3 ], [ true, %5 ], [ true, %_ZL29monitors_used_above_thresholdP11MonitorList.exit ], [ true, %53 ], [ false, %_ZL29monitors_used_above_thresholdP11MonitorList.exit.thread ]
  ret i1 %.0
}